target datalayout = "e-m:e-p270:32:32-p271:32:32-p272:64:64-i64:64-i128:128-f80:128-n8:16:32:64-S128"
target triple = "x86_64-pc-linux-gnu"

%struct._zend_date_globals = type { ptr, ptr, ptr, ptr }
%struct._zend_refcounted_h = type { i32, %union.anon }
%union.anon = type { i32 }
%struct._zend_string = type { %struct._zend_refcounted_h, i64, i64, [1 x i8] }

@date_globals = hidden global %struct._zend_date_globals zeroinitializer, align 8
@php_date_global_timezone_db = hidden global ptr null, align 8
@.str.182 = private unnamed_addr constant [4 x i8] c"UTC\00", align 1
@.str.190 = private unnamed_addr constant [53 x i8] c"Invalid date.timezone value '%s', using '%s' instead\00", align 1

; Function Attrs: nounwind uwtable
define internal i32 @OnUpdate_date_timezone(ptr noundef %0, ptr noundef %1, ptr noundef %2, ptr noundef %3, ptr noundef %4, i32 noundef %5) #0 {
  %7 = alloca i32, align 4
  %8 = alloca ptr, align 8
  %9 = alloca ptr, align 8
  %10 = alloca ptr, align 8
  %11 = alloca ptr, align 8
  %12 = alloca ptr, align 8
  %13 = alloca i32, align 4
  store ptr %0, ptr %8, align 8
  store ptr %1, ptr %9, align 8
  store ptr %2, ptr %10, align 8
  store ptr %3, ptr %11, align 8
  store ptr %4, ptr %12, align 8
  store i32 %5, ptr %13, align 4
  %14 = load ptr, ptr %9, align 8
  %15 = icmp ne ptr %14, null
  br i1 %15, label %16, label %41

16:                                               ; preds = %6
  %17 = load ptr, ptr %9, align 8
  %18 = getelementptr inbounds %struct._zend_string, ptr %17, i32 0, i32 3
  %19 = getelementptr inbounds [1 x i8], ptr %18, i64 0, i64 0
  %20 = load ptr, ptr @php_date_global_timezone_db, align 8
  %21 = icmp ne ptr %20, null
  br i1 %21, label %22, label %24

22:                                               ; preds = %16
  %23 = load ptr, ptr @php_date_global_timezone_db, align 8
  br label %26

24:                                               ; preds = %16
  %25 = call ptr @timelib_builtin_db()
  br label %26

26:                                               ; preds = %24, %22
  %27 = phi ptr [ %23, %22 ], [ %25, %24 ]
  %28 = call i32 @timelib_timezone_id_is_valid(ptr noundef %19, ptr noundef %27)
  %29 = icmp ne i32 %28, 0
  br i1 %29, label %41, label %30

30:                                               ; preds = %26
  %31 = load ptr, ptr %9, align 8
  %32 = getelementptr inbounds %struct._zend_string, ptr %31, i32 0, i32 3
  %33 = getelementptr inbounds [1 x i8], ptr %32, i64 0, i64 0
  %34 = load ptr, ptr @date_globals, align 8
  %35 = icmp ne ptr %34, null
  br i1 %35, label %36, label %38

36:                                               ; preds = %30
  %37 = load ptr, ptr @date_globals, align 8
  br label %39

38:                                               ; preds = %30
  br label %39

39:                                               ; preds = %38, %36
  %40 = phi ptr [ %37, %36 ], [ @.str.182, %38 ]
  call void (ptr, i32, ptr, ...) @php_error_docref(ptr noundef null, i32 noundef 2, ptr noundef @.str.190, ptr noundef %33, ptr noundef %40)
  store i32 -1, ptr %7, align 4
  br label %52

41:                                               ; preds = %26, %6
  %42 = load ptr, ptr %8, align 8
  %43 = load ptr, ptr %9, align 8
  %44 = load ptr, ptr %10, align 8
  %45 = load ptr, ptr %11, align 8
  %46 = load ptr, ptr %12, align 8
  %47 = load i32, ptr %13, align 4
  %48 = call i32 @OnUpdateString(ptr noundef %42, ptr noundef %43, ptr noundef %44, ptr noundef %45, ptr noundef %46, i32 noundef %47)
  %49 = icmp eq i32 %48, -1
  br i1 %49, label %50, label %51

50:                                               ; preds = %41
  store i32 -1, ptr %7, align 4
  br label %52

51:                                               ; preds = %41
  store i32 0, ptr %7, align 4
  br label %52

52:                                               ; preds = %51, %50, %39
  %53 = load i32, ptr %7, align 4
  ret i32 %53
}