; Function Attrs: nounwind uwtable
define internal i32 @OnUpdate_date_timezone(ptr noundef %0, ptr noundef %1, ptr noundef %2, ptr noundef %3, ptr noundef %4, i32 noundef %5) #0 {
  %.not = icmp eq ptr %1, null
  br i1 %.not, label %18, label %7

7:                                                ; preds = %6
  %8 = getelementptr inbounds i8, ptr %1, i64 24
  %9 = load ptr, ptr @php_date_global_timezone_db, align 8
  %.not11 = icmp eq ptr %9, null
  br i1 %.not11, label %10, label %12

10:                                               ; preds = %7
  %11 = tail call ptr @timelib_builtin_db() #25
  br label %12

12:                                               ; preds = %7, %10
  %13 = phi ptr [ %11, %10 ], [ %9, %7 ]
  %14 = tail call i32 @timelib_timezone_id_is_valid(ptr noundef nonnull %8, ptr noundef %13) #25
  %.not12 = icmp eq i32 %14, 0
  br i1 %.not12, label %15, label %18

15:                                               ; preds = %12
  %16 = load ptr, ptr @date_globals, align 8
  %.not13 = icmp eq ptr %16, null
  %17 = select i1 %.not13, ptr @.str.182, ptr %16
  tail call void (ptr, i32, ptr, ...) @php_error_docref(ptr noundef null, i32 noundef 2, ptr noundef nonnull @.str.190, ptr noundef nonnull %8, ptr noundef nonnull %17) #25
  br label %21

18:                                               ; preds = %12, %6
  %19 = tail call i32 @OnUpdateString(ptr noundef %0, ptr noundef %1, ptr noundef %2, ptr noundef %3, ptr noundef %4, i32 noundef %5) #25
  %20 = icmp eq i32 %19, -1
  %. = sext i1 %20 to i32
  br label %21

21:                                               ; preds = %18, %15
  %.0 = phi i32 [ -1, %15 ], [ %., %18 ]
  ret i32 %.0
}